target datalayout = "e-m:e-p270:32:32-p271:32:32-p272:64:64-i64:64-i128:128-f80:128-n8:16:32:64-S128"
target triple = "x86_64-pc-linux-gnu"

%struct.FSE_symbolCompressionTransform = type { i32, i32 }

; Function Attrs: nounwind uwtable
define i64 @FSE_buildCTable_rle(ptr noundef %0, i8 noundef zeroext %1) #0 {
  %3 = alloca ptr, align 8
  %4 = alloca i8, align 1
  %5 = alloca ptr, align 8
  %6 = alloca ptr, align 8
  %7 = alloca ptr, align 8
  %8 = alloca ptr, align 8
  store ptr %0, ptr %3, align 8, !tbaa !3
  store i8 %1, ptr %4, align 1, !tbaa !19
  call void @llvm.lifetime.start.p0(i64 8, ptr %5) #6
  %9 = load ptr, ptr %3, align 8, !tbaa !3
  store ptr %9, ptr %5, align 8, !tbaa !12
  call void @llvm.lifetime.start.p0(i64 8, ptr %6) #6
  %10 = load ptr, ptr %5, align 8, !tbaa !12
  %11 = getelementptr inbounds i16, ptr %10, i64 2
  store ptr %11, ptr %6, align 8, !tbaa !8
  call void @llvm.lifetime.start.p0(i64 8, ptr %7) #6
  %12 = load ptr, ptr %5, align 8, !tbaa !12
  %13 = getelementptr inbounds i32, ptr %12, i64 2
  store ptr %13, ptr %7, align 8, !tbaa !12
  call void @llvm.lifetime.start.p0(i64 8, ptr %8) #6
  %14 = load ptr, ptr %7, align 8, !tbaa !12
  store ptr %14, ptr %8, align 8, !tbaa !12
  %15 = load ptr, ptr %6, align 8, !tbaa !8
  %16 = getelementptr inbounds i16, ptr %15, i64 -2
  store i16 0, ptr %16, align 2, !tbaa !17
  %17 = load i8, ptr %4, align 1, !tbaa !19
  %18 = zext i8 %17 to i16
  %19 = load ptr, ptr %6, align 8, !tbaa !8
  %20 = getelementptr inbounds i16, ptr %19, i64 -1
  store i16 %18, ptr %20, align 2, !tbaa !17
  %21 = load ptr, ptr %6, align 8, !tbaa !8
  %22 = getelementptr inbounds i16, ptr %21, i64 0
  store i16 0, ptr %22, align 2, !tbaa !17
  %23 = load ptr, ptr %6, align 8, !tbaa !8
  %24 = getelementptr inbounds i16, ptr %23, i64 1
  store i16 0, ptr %24, align 2, !tbaa !17
  %25 = load ptr, ptr %8, align 8, !tbaa !12
  %26 = load i8, ptr %4, align 1, !tbaa !19
  %27 = zext i8 %26 to i64
  %28 = getelementptr inbounds nuw %struct.FSE_symbolCompressionTransform, ptr %25, i64 %27
  %29 = getelementptr inbounds nuw %struct.FSE_symbolCompressionTransform, ptr %28, i32 0, i32 1
  store i32 0, ptr %29, align 4, !tbaa !30
  %30 = load ptr, ptr %8, align 8, !tbaa !12
  %31 = load i8, ptr %4, align 1, !tbaa !19
  %32 = zext i8 %31 to i64
  %33 = getelementptr inbounds nuw %struct.FSE_symbolCompressionTransform, ptr %30, i64 %32
  %34 = getelementptr inbounds nuw %struct.FSE_symbolCompressionTransform, ptr %33, i32 0, i32 0
  store i32 0, ptr %34, align 4, !tbaa !32
  call void @llvm.lifetime.end.p0(i64 8, ptr %8) #6
  call void @llvm.lifetime.end.p0(i64 8, ptr %7) #6
  call void @llvm.lifetime.end.p0(i64 8, ptr %6) #6
  call void @llvm.lifetime.end.p0(i64 8, ptr %5) #6
  ret i64 0
}