; Function Attrs: mustprogress nofree norecurse nosync nounwind willreturn memory(argmem: write) uwtable
define noundef i64 @FSE_buildCTable_rle(ptr noundef writeonly captures(none) initializes((0, 8)) %0, i8 noundef zeroext %1) local_unnamed_addr #4 {
  %3 = getelementptr inbounds nuw i8, ptr %0, i64 4
  %4 = getelementptr inbounds nuw i8, ptr %0, i64 8
  store i16 0, ptr %0, align 2, !tbaa !3
  %5 = zext i8 %1 to i16
  %6 = getelementptr inbounds nuw i8, ptr %0, i64 2
  store i16 %5, ptr %6, align 2, !tbaa !3
  store i16 0, ptr %3, align 2, !tbaa !3
  %7 = getelementptr inbounds nuw i8, ptr %0, i64 6
  store i16 0, ptr %7, align 2, !tbaa !3
  %8 = zext i8 %1 to i64
  %9 = getelementptr inbounds nuw %struct.FSE_symbolCompressionTransform, ptr %4, i64 %8
  %10 = getelementptr inbounds nuw i8, ptr %9, i64 4
  store i32 0, ptr %10, align 4, !tbaa !19
  store i32 0, ptr %9, align 4, !tbaa !22
  ret i64 0
}